target datalayout = "e-m:e-p270:32:32-p271:32:32-p272:64:64-i64:64-i128:128-f80:128-n8:16:32:64-S128"
target triple = "x86_64-unknown-linux-gnu"

%struct.timeval = type { i64, i64 }

; Function Attrs: nounwind uwtable
define dso_local i64 @evutil_tv_to_msec_(ptr noundef %tv) #0 {
entry:
  %retval = alloca i64, align 8
  %tv.addr = alloca ptr, align 8
  store ptr %tv, ptr %tv.addr, align 8
  %0 = load ptr, ptr %tv.addr, align 8
  %tv_usec = getelementptr inbounds %struct.timeval, ptr %0, i32 0, i32 1
  %1 = load i64, ptr %tv_usec, align 8
  %cmp = icmp sgt i64 %1, 1000000
  br i1 %cmp, label %if.then, label %lor.lhs.false

lor.lhs.false:                                    ; preds = %entry
  %2 = load ptr, ptr %tv.addr, align 8
  %tv_sec = getelementptr inbounds %struct.timeval, ptr %2, i32 0, i32 0
  %3 = load i64, ptr %tv_sec, align 8
  %cmp1 = icmp sgt i64 %3, 9223372036854774
  br i1 %cmp1, label %if.then, label %if.end

if.then:                                          ; preds = %lor.lhs.false, %entry
  store i64 -1, ptr %retval, align 8
  br label %return

if.end:                                           ; preds = %lor.lhs.false
  %4 = load ptr, ptr %tv.addr, align 8
  %tv_sec2 = getelementptr inbounds %struct.timeval, ptr %4, i32 0, i32 0
  %5 = load i64, ptr %tv_sec2, align 8
  %mul = mul nsw i64 %5, 1000
  %6 = load ptr, ptr %tv.addr, align 8
  %tv_usec3 = getelementptr inbounds %struct.timeval, ptr %6, i32 0, i32 1
  %7 = load i64, ptr %tv_usec3, align 8
  %add = add nsw i64 %7, 999
  %div = sdiv i64 %add, 1000
  %add4 = add nsw i64 %mul, %div
  store i64 %add4, ptr %retval, align 8
  br label %return

return:                                           ; preds = %if.end, %if.then
  %8 = load i64, ptr %retval, align 8
  ret i64 %8
}