; Function Attrs: mustprogress nofree norecurse nosync nounwind willreturn memory(argmem: read) uwtable
define dso_local range(i64 -9223372036854775808, 9223372036854775001) i64 @evutil_tv_to_msec_(ptr noundef readonly captures(none) %tv) local_unnamed_addr #0 {
entry:
  %tv_usec = getelementptr inbounds nuw i8, ptr %tv, i64 8
  %0 = load i64, ptr %tv_usec, align 8
  %cmp = icmp sgt i64 %0, 1000000
  br i1 %cmp, label %return, label %lor.lhs.false

lor.lhs.false:                                    ; preds = %entry
  %1 = load i64, ptr %tv, align 8
  %cmp1 = icmp sgt i64 %1, 9223372036854774
  br i1 %cmp1, label %return, label %if.end

if.end:                                           ; preds = %lor.lhs.false
  %mul = mul nsw i64 %1, 1000
  %add = add nsw i64 %0, 999
  %div = sdiv i64 %add, 1000
  %add4 = add nsw i64 %mul, %div
  br label %return

return:                                           ; preds = %entry, %lor.lhs.false, %if.end
  %retval.0 = phi i64 [ %add4, %if.end ], [ -1, %lor.lhs.false ], [ -1, %entry ]
  ret i64 %retval.0
}